target datalayout = "e-m:e-p270:32:32-p271:32:32-p272:64:64-i64:64-i128:128-f80:128-n8:16:32:64-S128"
target triple = "x86_64-unknown-linux-gnu"

%"class.FLAC::Metadata::Chain" = type { ptr, ptr }

; Function Attrs: mustprogress sspstrong uwtable
define noundef zeroext i1 @_ZN4FLAC8Metadata5Chain4readEPKcb(ptr noundef nonnull align 8 dereferenceable(16) %this, ptr noundef %filename, i1 noundef zeroext %is_ogg) #0 align 2 {
entry:
  %this.addr = alloca ptr, align 8
  %filename.addr = alloca ptr, align 8
  %is_ogg.addr = alloca i8, align 1
  store ptr %this, ptr %this.addr, align 8
  store ptr %filename, ptr %filename.addr, align 8
  %frombool = zext i1 %is_ogg to i8
  store i8 %frombool, ptr %is_ogg.addr, align 1
  %this1 = load ptr, ptr %this.addr, align 8
  %0 = load i8, ptr %is_ogg.addr, align 1
  %tobool = trunc i8 %0 to i1
  br i1 %tobool, label %cond.true, label %cond.false

cond.true:                                        ; preds = %entry
  %chain_ = getelementptr inbounds %"class.FLAC::Metadata::Chain", ptr %this1, i32 0, i32 1
  %1 = load ptr, ptr %chain_, align 8
  %2 = load ptr, ptr %filename.addr, align 8
  %call = call i32 @FLAC__metadata_chain_read_ogg(ptr noundef %1, ptr noundef %2)
  %tobool2 = icmp ne i32 %call, 0
  br label %cond.end

cond.false:                                       ; preds = %entry
  %chain_3 = getelementptr inbounds %"class.FLAC::Metadata::Chain", ptr %this1, i32 0, i32 1
  %3 = load ptr, ptr %chain_3, align 8
  %4 = load ptr, ptr %filename.addr, align 8
  %call4 = call i32 @FLAC__metadata_chain_read(ptr noundef %3, ptr noundef %4)
  %tobool5 = icmp ne i32 %call4, 0
  br label %cond.end

cond.end:                                         ; preds = %cond.false, %cond.true
  %cond = phi i1 [ %tobool2, %cond.true ], [ %tobool5, %cond.false ]
  ret i1 %cond
}