; Function Attrs: mustprogress sspstrong uwtable
define noundef zeroext i1 @_ZN4FLAC8Metadata5Chain4readEPKcb(ptr nocapture noundef nonnull readonly align 8 dereferenceable(16) %this, ptr noundef %filename, i1 noundef zeroext %is_ogg) local_unnamed_addr #0 align 2 {
entry:
  %chain_ = getelementptr inbounds i8, ptr %this, i64 8
  %0 = load ptr, ptr %chain_, align 8
  br i1 %is_ogg, label %cond.true, label %cond.false

cond.true:                                        ; preds = %entry
  %call = tail call i32 @FLAC__metadata_chain_read_ogg(ptr noundef %0, ptr noundef %filename)
  br label %cond.end

cond.false:                                       ; preds = %entry
  %call4 = tail call i32 @FLAC__metadata_chain_read(ptr noundef %0, ptr noundef %filename)
  br label %cond.end

cond.end:                                         ; preds = %cond.false, %cond.true
  %cond.in = phi i32 [ %call, %cond.true ], [ %call4, %cond.false ]
  %cond = icmp ne i32 %cond.in, 0
  ret i1 %cond
}